target datalayout = "e-m:e-p270:32:32-p271:32:32-p272:64:64-i64:64-i128:128-f80:128-n8:16:32:64-S128"
target triple = "x86_64-pc-linux-gnu"

; Function Attrs: alwaysinline nounwind uwtable
define internal void @h264_loop_filter_luma_intra_10_c(ptr noundef %0, i64 noundef %1, i64 noundef %2, i32 noundef %3, i32 noundef %4, i32 noundef %5) #7 {
  %7 = alloca ptr, align 8
  %8 = alloca i64, align 8
  %9 = alloca i64, align 8
  %10 = alloca i32, align 4
  %11 = alloca i32, align 4
  %12 = alloca i32, align 4
  %13 = alloca ptr, align 8
  %14 = alloca i32, align 4
  %15 = alloca i32, align 4
  %16 = alloca i32, align 4
  %17 = alloca i32, align 4
  %18 = alloca i32, align 4
  %19 = alloca i32, align 4
  %20 = alloca i32, align 4
  %21 = alloca i32, align 4
  %22 = alloca i32, align 4
  store ptr %0, ptr %7, align 8, !tbaa !39
  store i64 %1, ptr %8, align 8, !tbaa !53
  store i64 %2, ptr %9, align 8, !tbaa !53
  store i32 %3, ptr %10, align 4, !tbaa !9
  store i32 %4, ptr %11, align 4, !tbaa !9
  store i32 %5, ptr %12, align 4, !tbaa !9
  call void @llvm.lifetime.start.p0(i64 8, ptr %13) #9
  %23 = load ptr, ptr %7, align 8, !tbaa !39
  store ptr %23, ptr %13, align 8, !tbaa !41
  call void @llvm.lifetime.start.p0(i64 4, ptr %14) #9
  %24 = load i64, ptr %8, align 8, !tbaa !53
  %25 = ashr i64 %24, 1
  store i64 %25, ptr %8, align 8, !tbaa !53
  %26 = load i64, ptr %9, align 8, !tbaa !53
  %27 = ashr i64 %26, 1
  store i64 %27, ptr %9, align 8, !tbaa !53
  %28 = load i32, ptr %11, align 4, !tbaa !9
  %29 = shl i32 %28, 2
  store i32 %29, ptr %11, align 4, !tbaa !9
  %30 = load i32, ptr %12, align 4, !tbaa !9
  %31 = shl i32 %30, 2
  store i32 %31, ptr %12, align 4, !tbaa !9
  store i32 0, ptr %14, align 4, !tbaa !9
  br label %32

32:                                               ; preds = %360, %6
  %33 = load i32, ptr %14, align 4, !tbaa !9
  %34 = load i32, ptr %10, align 4, !tbaa !9
  %35 = mul nsw i32 4, %34
  %36 = icmp slt i32 %33, %35
  br i1 %36, label %37, label %363

37:                                               ; preds = %32
  call void @llvm.lifetime.start.p0(i64 4, ptr %15) #9
  %38 = load ptr, ptr %13, align 8, !tbaa !41
  %39 = load i64, ptr %8, align 8, !tbaa !53
  %40 = mul nsw i64 -3, %39
  %41 = getelementptr inbounds i16, ptr %38, i64 %40
  %42 = load i16, ptr %41, align 2, !tbaa !45
  %43 = zext i16 %42 to i32
  store i32 %43, ptr %15, align 4, !tbaa !9
  call void @llvm.lifetime.start.p0(i64 4, ptr %16) #9
  %44 = load ptr, ptr %13, align 8, !tbaa !41
  %45 = load i64, ptr %8, align 8, !tbaa !53
  %46 = mul nsw i64 -2, %45
  %47 = getelementptr inbounds i16, ptr %44, i64 %46
  %48 = load i16, ptr %47, align 2, !tbaa !45
  %49 = zext i16 %48 to i32
  store i32 %49, ptr %16, align 4, !tbaa !9
  call void @llvm.lifetime.start.p0(i64 4, ptr %17) #9
  %50 = load ptr, ptr %13, align 8, !tbaa !41
  %51 = load i64, ptr %8, align 8, !tbaa !53
  %52 = mul nsw i64 -1, %51
  %53 = getelementptr inbounds i16, ptr %50, i64 %52
  %54 = load i16, ptr %53, align 2, !tbaa !45
  %55 = zext i16 %54 to i32
  store i32 %55, ptr %17, align 4, !tbaa !9
  call void @llvm.lifetime.start.p0(i64 4, ptr %18) #9
  %56 = load ptr, ptr %13, align 8, !tbaa !41
  %57 = load i64, ptr %8, align 8, !tbaa !53
  %58 = mul nsw i64 0, %57
  %59 = getelementptr inbounds i16, ptr %56, i64 %58
  %60 = load i16, ptr %59, align 2, !tbaa !45
  %61 = zext i16 %60 to i32
  store i32 %61, ptr %18, align 4, !tbaa !9
  call void @llvm.lifetime.start.p0(i64 4, ptr %19) #9
  %62 = load ptr, ptr %13, align 8, !tbaa !41
  %63 = load i64, ptr %8, align 8, !tbaa !53
  %64 = mul nsw i64 1, %63
  %65 = getelementptr inbounds i16, ptr %62, i64 %64
  %66 = load i16, ptr %65, align 2, !tbaa !45
  %67 = zext i16 %66 to i32
  store i32 %67, ptr %19, align 4, !tbaa !9
  call void @llvm.lifetime.start.p0(i64 4, ptr %20) #9
  %68 = load ptr, ptr %13, align 8, !tbaa !41
  %69 = load i64, ptr %8, align 8, !tbaa !53
  %70 = mul nsw i64 2, %69
  %71 = getelementptr inbounds i16, ptr %68, i64 %70
  %72 = load i16, ptr %71, align 2, !tbaa !45
  %73 = zext i16 %72 to i32
  store i32 %73, ptr %20, align 4, !tbaa !9
  %74 = load i32, ptr %17, align 4, !tbaa !9
  %75 = load i32, ptr %18, align 4, !tbaa !9
  %76 = sub nsw i32 %74, %75
  %77 = icmp sge i32 %76, 0
  br i1 %77, label %78, label %82

78:                                               ; preds = %37
  %79 = load i32, ptr %17, align 4, !tbaa !9
  %80 = load i32, ptr %18, align 4, !tbaa !9
  %81 = sub nsw i32 %79, %80
  br label %87

82:                                               ; preds = %37
  %83 = load i32, ptr %17, align 4, !tbaa !9
  %84 = load i32, ptr %18, align 4, !tbaa !9
  %85 = sub nsw i32 %83, %84
  %86 = sub nsw i32 0, %85
  br label %87

87:                                               ; preds = %82, %78
  %88 = phi i32 [ %81, %78 ], [ %86, %82 ]
  %89 = load i32, ptr %11, align 4, !tbaa !9
  %90 = icmp slt i32 %88, %89
  br i1 %90, label %91, label %356

91:                                               ; preds = %87
  %92 = load i32, ptr %16, align 4, !tbaa !9
  %93 = load i32, ptr %17, align 4, !tbaa !9
  %94 = sub nsw i32 %92, %93
  %95 = icmp sge i32 %94, 0
  br i1 %95, label %96, label %100

96:                                               ; preds = %91
  %97 = load i32, ptr %16, align 4, !tbaa !9
  %98 = load i32, ptr %17, align 4, !tbaa !9
  %99 = sub nsw i32 %97, %98
  br label %105

100:                                              ; preds = %91
  %101 = load i32, ptr %16, align 4, !tbaa !9
  %102 = load i32, ptr %17, align 4, !tbaa !9
  %103 = sub nsw i32 %101, %102
  %104 = sub nsw i32 0, %103
  br label %105

105:                                              ; preds = %100, %96
  %106 = phi i32 [ %99, %96 ], [ %104, %100 ]
  %107 = load i32, ptr %12, align 4, !tbaa !9
  %108 = icmp slt i32 %106, %107
  br i1 %108, label %109, label %356

109:                                              ; preds = %105
  %110 = load i32, ptr %19, align 4, !tbaa !9
  %111 = load i32, ptr %18, align 4, !tbaa !9
  %112 = sub nsw i32 %110, %111
  %113 = icmp sge i32 %112, 0
  br i1 %113, label %114, label %118

114:                                              ; preds = %109
  %115 = load i32, ptr %19, align 4, !tbaa !9
  %116 = load i32, ptr %18, align 4, !tbaa !9
  %117 = sub nsw i32 %115, %116
  br label %123

118:                                              ; preds = %109
  %119 = load i32, ptr %19, align 4, !tbaa !9
  %120 = load i32, ptr %18, align 4, !tbaa !9
  %121 = sub nsw i32 %119, %120
  %122 = sub nsw i32 0, %121
  br label %123

123:                                              ; preds = %118, %114
  %124 = phi i32 [ %117, %114 ], [ %122, %118 ]
  %125 = load i32, ptr %12, align 4, !tbaa !9
  %126 = icmp slt i32 %124, %125
  br i1 %126, label %127, label %356

127:                                              ; preds = %123
  %128 = load i32, ptr %17, align 4, !tbaa !9
  %129 = load i32, ptr %18, align 4, !tbaa !9
  %130 = sub nsw i32 %128, %129
  %131 = icmp sge i32 %130, 0
  br i1 %131, label %132, label %136

132:                                              ; preds = %127
  %133 = load i32, ptr %17, align 4, !tbaa !9
  %134 = load i32, ptr %18, align 4, !tbaa !9
  %135 = sub nsw i32 %133, %134
  br label %141

136:                                              ; preds = %127
  %137 = load i32, ptr %17, align 4, !tbaa !9
  %138 = load i32, ptr %18, align 4, !tbaa !9
  %139 = sub nsw i32 %137, %138
  %140 = sub nsw i32 0, %139
  br label %141

141:                                              ; preds = %136, %132
  %142 = phi i32 [ %135, %132 ], [ %140, %136 ]
  %143 = load i32, ptr %11, align 4, !tbaa !9
  %144 = ashr i32 %143, 2
  %145 = add nsw i32 %144, 2
  %146 = icmp slt i32 %142, %145
  br i1 %146, label %147, label %328

147:                                              ; preds = %141
  %148 = load i32, ptr %15, align 4, !tbaa !9
  %149 = load i32, ptr %17, align 4, !tbaa !9
  %150 = sub nsw i32 %148, %149
  %151 = icmp sge i32 %150, 0
  br i1 %151, label %152, label %156

152:                                              ; preds = %147
  %153 = load i32, ptr %15, align 4, !tbaa !9
  %154 = load i32, ptr %17, align 4, !tbaa !9
  %155 = sub nsw i32 %153, %154
  br label %161

156:                                              ; preds = %147
  %157 = load i32, ptr %15, align 4, !tbaa !9
  %158 = load i32, ptr %17, align 4, !tbaa !9
  %159 = sub nsw i32 %157, %158
  %160 = sub nsw i32 0, %159
  br label %161

161:                                              ; preds = %156, %152
  %162 = phi i32 [ %155, %152 ], [ %160, %156 ]
  %163 = load i32, ptr %12, align 4, !tbaa !9
  %164 = icmp slt i32 %162, %163
  br i1 %164, label %165, label %223

165:                                              ; preds = %161
  call void @llvm.lifetime.start.p0(i64 4, ptr %21) #9
  %166 = load ptr, ptr %13, align 8, !tbaa !41
  %167 = load i64, ptr %8, align 8, !tbaa !53
  %168 = mul nsw i64 -4, %167
  %169 = getelementptr inbounds i16, ptr %166, i64 %168
  %170 = load i16, ptr %169, align 2, !tbaa !45
  %171 = zext i16 %170 to i32
  store i32 %171, ptr %21, align 4, !tbaa !9
  %172 = load i32, ptr %15, align 4, !tbaa !9
  %173 = load i32, ptr %16, align 4, !tbaa !9
  %174 = mul nsw i32 2, %173
  %175 = add nsw i32 %172, %174
  %176 = load i32, ptr %17, align 4, !tbaa !9
  %177 = mul nsw i32 2, %176
  %178 = add nsw i32 %175, %177
  %179 = load i32, ptr %18, align 4, !tbaa !9
  %180 = mul nsw i32 2, %179
  %181 = add nsw i32 %178, %180
  %182 = load i32, ptr %19, align 4, !tbaa !9
  %183 = add nsw i32 %181, %182
  %184 = add nsw i32 %183, 4
  %185 = ashr i32 %184, 3
  %186 = trunc i32 %185 to i16
  %187 = load ptr, ptr %13, align 8, !tbaa !41
  %188 = load i64, ptr %8, align 8, !tbaa !53
  %189 = mul nsw i64 -1, %188
  %190 = getelementptr inbounds i16, ptr %187, i64 %189
  store i16 %186, ptr %190, align 2, !tbaa !45
  %191 = load i32, ptr %15, align 4, !tbaa !9
  %192 = load i32, ptr %16, align 4, !tbaa !9
  %193 = add nsw i32 %191, %192
  %194 = load i32, ptr %17, align 4, !tbaa !9
  %195 = add nsw i32 %193, %194
  %196 = load i32, ptr %18, align 4, !tbaa !9
  %197 = add nsw i32 %195, %196
  %198 = add nsw i32 %197, 2
  %199 = ashr i32 %198, 2
  %200 = trunc i32 %199 to i16
  %201 = load ptr, ptr %13, align 8, !tbaa !41
  %202 = load i64, ptr %8, align 8, !tbaa !53
  %203 = mul nsw i64 -2, %202
  %204 = getelementptr inbounds i16, ptr %201, i64 %203
  store i16 %200, ptr %204, align 2, !tbaa !45
  %205 = load i32, ptr %21, align 4, !tbaa !9
  %206 = mul nsw i32 2, %205
  %207 = load i32, ptr %15, align 4, !tbaa !9
  %208 = mul nsw i32 3, %207
  %209 = add nsw i32 %206, %208
  %210 = load i32, ptr %16, align 4, !tbaa !9
  %211 = add nsw i32 %209, %210
  %212 = load i32, ptr %17, align 4, !tbaa !9
  %213 = add nsw i32 %211, %212
  %214 = load i32, ptr %18, align 4, !tbaa !9
  %215 = add nsw i32 %213, %214
  %216 = add nsw i32 %215, 4
  %217 = ashr i32 %216, 3
  %218 = trunc i32 %217 to i16
  %219 = load ptr, ptr %13, align 8, !tbaa !41
  %220 = load i64, ptr %8, align 8, !tbaa !53
  %221 = mul nsw i64 -3, %220
  %222 = getelementptr inbounds i16, ptr %219, i64 %221
  store i16 %218, ptr %222, align 2, !tbaa !45
  call void @llvm.lifetime.end.p0(i64 4, ptr %21) #9
  br label %237

223:                                              ; preds = %161
  %224 = load i32, ptr %16, align 4, !tbaa !9
  %225 = mul nsw i32 2, %224
  %226 = load i32, ptr %17, align 4, !tbaa !9
  %227 = add nsw i32 %225, %226
  %228 = load i32, ptr %19, align 4, !tbaa !9
  %229 = add nsw i32 %227, %228
  %230 = add nsw i32 %229, 2
  %231 = ashr i32 %230, 2
  %232 = trunc i32 %231 to i16
  %233 = load ptr, ptr %13, align 8, !tbaa !41
  %234 = load i64, ptr %8, align 8, !tbaa !53
  %235 = mul nsw i64 -1, %234
  %236 = getelementptr inbounds i16, ptr %233, i64 %235
  store i16 %232, ptr %236, align 2, !tbaa !45
  br label %237

237:                                              ; preds = %223, %165
  %238 = load i32, ptr %20, align 4, !tbaa !9
  %239 = load i32, ptr %18, align 4, !tbaa !9
  %240 = sub nsw i32 %238, %239
  %241 = icmp sge i32 %240, 0
  br i1 %241, label %242, label %246

242:                                              ; preds = %237
  %243 = load i32, ptr %20, align 4, !tbaa !9
  %244 = load i32, ptr %18, align 4, !tbaa !9
  %245 = sub nsw i32 %243, %244
  br label %251

246:                                              ; preds = %237
  %247 = load i32, ptr %20, align 4, !tbaa !9
  %248 = load i32, ptr %18, align 4, !tbaa !9
  %249 = sub nsw i32 %247, %248
  %250 = sub nsw i32 0, %249
  br label %251

251:                                              ; preds = %246, %242
  %252 = phi i32 [ %245, %242 ], [ %250, %246 ]
  %253 = load i32, ptr %12, align 4, !tbaa !9
  %254 = icmp slt i32 %252, %253
  br i1 %254, label %255, label %313

255:                                              ; preds = %251
  call void @llvm.lifetime.start.p0(i64 4, ptr %22) #9
  %256 = load ptr, ptr %13, align 8, !tbaa !41
  %257 = load i64, ptr %8, align 8, !tbaa !53
  %258 = mul nsw i64 3, %257
  %259 = getelementptr inbounds i16, ptr %256, i64 %258
  %260 = load i16, ptr %259, align 2, !tbaa !45
  %261 = zext i16 %260 to i32
  store i32 %261, ptr %22, align 4, !tbaa !9
  %262 = load i32, ptr %16, align 4, !tbaa !9
  %263 = load i32, ptr %17, align 4, !tbaa !9
  %264 = mul nsw i32 2, %263
  %265 = add nsw i32 %262, %264
  %266 = load i32, ptr %18, align 4, !tbaa !9
  %267 = mul nsw i32 2, %266
  %268 = add nsw i32 %265, %267
  %269 = load i32, ptr %19, align 4, !tbaa !9
  %270 = mul nsw i32 2, %269
  %271 = add nsw i32 %268, %270
  %272 = load i32, ptr %20, align 4, !tbaa !9
  %273 = add nsw i32 %271, %272
  %274 = add nsw i32 %273, 4
  %275 = ashr i32 %274, 3
  %276 = trunc i32 %275 to i16
  %277 = load ptr, ptr %13, align 8, !tbaa !41
  %278 = load i64, ptr %8, align 8, !tbaa !53
  %279 = mul nsw i64 0, %278
  %280 = getelementptr inbounds i16, ptr %277, i64 %279
  store i16 %276, ptr %280, align 2, !tbaa !45
  %281 = load i32, ptr %17, align 4, !tbaa !9
  %282 = load i32, ptr %18, align 4, !tbaa !9
  %283 = add nsw i32 %281, %282
  %284 = load i32, ptr %19, align 4, !tbaa !9
  %285 = add nsw i32 %283, %284
  %286 = load i32, ptr %20, align 4, !tbaa !9
  %287 = add nsw i32 %285, %286
  %288 = add nsw i32 %287, 2
  %289 = ashr i32 %288, 2
  %290 = trunc i32 %289 to i16
  %291 = load ptr, ptr %13, align 8, !tbaa !41
  %292 = load i64, ptr %8, align 8, !tbaa !53
  %293 = mul nsw i64 1, %292
  %294 = getelementptr inbounds i16, ptr %291, i64 %293
  store i16 %290, ptr %294, align 2, !tbaa !45
  %295 = load i32, ptr %22, align 4, !tbaa !9
  %296 = mul nsw i32 2, %295
  %297 = load i32, ptr %20, align 4, !tbaa !9
  %298 = mul nsw i32 3, %297
  %299 = add nsw i32 %296, %298
  %300 = load i32, ptr %19, align 4, !tbaa !9
  %301 = add nsw i32 %299, %300
  %302 = load i32, ptr %18, align 4, !tbaa !9
  %303 = add nsw i32 %301, %302
  %304 = load i32, ptr %17, align 4, !tbaa !9
  %305 = add nsw i32 %303, %304
  %306 = add nsw i32 %305, 4
  %307 = ashr i32 %306, 3
  %308 = trunc i32 %307 to i16
  %309 = load ptr, ptr %13, align 8, !tbaa !41
  %310 = load i64, ptr %8, align 8, !tbaa !53
  %311 = mul nsw i64 2, %310
  %312 = getelementptr inbounds i16, ptr %309, i64 %311
  store i16 %308, ptr %312, align 2, !tbaa !45
  call void @llvm.lifetime.end.p0(i64 4, ptr %22) #9
  br label %327

313:                                              ; preds = %251
  %314 = load i32, ptr %19, align 4, !tbaa !9
  %315 = mul nsw i32 2, %314
  %316 = load i32, ptr %18, align 4, !tbaa !9
  %317 = add nsw i32 %315, %316
  %318 = load i32, ptr %16, align 4, !tbaa !9
  %319 = add nsw i32 %317, %318
  %320 = add nsw i32 %319, 2
  %321 = ashr i32 %320, 2
  %322 = trunc i32 %321 to i16
  %323 = load ptr, ptr %13, align 8, !tbaa !41
  %324 = load i64, ptr %8, align 8, !tbaa !53
  %325 = mul nsw i64 0, %324
  %326 = getelementptr inbounds i16, ptr %323, i64 %325
  store i16 %322, ptr %326, align 2, !tbaa !45
  br label %327

327:                                              ; preds = %313, %255
  br label %355

328:                                              ; preds = %141
  %329 = load i32, ptr %16, align 4, !tbaa !9
  %330 = mul nsw i32 2, %329
  %331 = load i32, ptr %17, align 4, !tbaa !9
  %332 = add nsw i32 %330, %331
  %333 = load i32, ptr %19, align 4, !tbaa !9
  %334 = add nsw i32 %332, %333
  %335 = add nsw i32 %334, 2
  %336 = ashr i32 %335, 2
  %337 = trunc i32 %336 to i16
  %338 = load ptr, ptr %13, align 8, !tbaa !41
  %339 = load i64, ptr %8, align 8, !tbaa !53
  %340 = mul nsw i64 -1, %339
  %341 = getelementptr inbounds i16, ptr %338, i64 %340
  store i16 %337, ptr %341, align 2, !tbaa !45
  %342 = load i32, ptr %19, align 4, !tbaa !9
  %343 = mul nsw i32 2, %342
  %344 = load i32, ptr %18, align 4, !tbaa !9
  %345 = add nsw i32 %343, %344
  %346 = load i32, ptr %16, align 4, !tbaa !9
  %347 = add nsw i32 %345, %346
  %348 = add nsw i32 %347, 2
  %349 = ashr i32 %348, 2
  %350 = trunc i32 %349 to i16
  %351 = load ptr, ptr %13, align 8, !tbaa !41
  %352 = load i64, ptr %8, align 8, !tbaa !53
  %353 = mul nsw i64 0, %352
  %354 = getelementptr inbounds i16, ptr %351, i64 %353
  store i16 %350, ptr %354, align 2, !tbaa !45
  br label %355

355:                                              ; preds = %328, %327
  br label %356

356:                                              ; preds = %355, %123, %105, %87
  %357 = load i64, ptr %9, align 8, !tbaa !53
  %358 = load ptr, ptr %13, align 8, !tbaa !41
  %359 = getelementptr inbounds i16, ptr %358, i64 %357
  store ptr %359, ptr %13, align 8, !tbaa !41
  call void @llvm.lifetime.end.p0(i64 4, ptr %20) #9
  call void @llvm.lifetime.end.p0(i64 4, ptr %19) #9
  call void @llvm.lifetime.end.p0(i64 4, ptr %18) #9
  call void @llvm.lifetime.end.p0(i64 4, ptr %17) #9
  call void @llvm.lifetime.end.p0(i64 4, ptr %16) #9
  call void @llvm.lifetime.end.p0(i64 4, ptr %15) #9
  br label %360

360:                                              ; preds = %356
  %361 = load i32, ptr %14, align 4, !tbaa !9
  %362 = add nsw i32 %361, 1
  store i32 %362, ptr %14, align 4, !tbaa !9
  br label %32, !llvm.loop !103

363:                                              ; preds = %32
  call void @llvm.lifetime.end.p0(i64 4, ptr %14) #9
  call void @llvm.lifetime.end.p0(i64 8, ptr %13) #9
  ret void
}

; Function Attrs: nounwind uwtable
define internal void @h264_h_loop_filter_luma_mbaff_intra_10_c(ptr noundef %0, i64 noundef %1, i32 noundef %2, i32 noundef %3) #1 {
  %5 = alloca ptr, align 8
  %6 = alloca i64, align 8
  %7 = alloca i32, align 4
  %8 = alloca i32, align 4
  store ptr %0, ptr %5, align 8, !tbaa !39
  store i64 %1, ptr %6, align 8, !tbaa !53
  store i32 %2, ptr %7, align 4, !tbaa !9
  store i32 %3, ptr %8, align 4, !tbaa !9
  %9 = load ptr, ptr %5, align 8, !tbaa !39
  %10 = load i64, ptr %6, align 8, !tbaa !53
  %11 = load i32, ptr %7, align 4, !tbaa !9
  %12 = load i32, ptr %8, align 4, !tbaa !9
  call void @h264_loop_filter_luma_intra_10_c(ptr noundef %9, i64 noundef 2, i64 noundef %10, i32 noundef 2, i32 noundef %11, i32 noundef %12)
  ret void
}